; Function Attrs: nounwind uwtable
define internal fastcc void @process_verbosity_command(ptr noundef %0, ptr noundef nonnull readonly captures(none) %1, i64 noundef range(i64 2, 0) %2) unnamed_addr #0 {
  %4 = alloca i32, align 4
  call void @llvm.lifetime.start.p0(i64 4, ptr nonnull %4) #13
  %5 = shl i64 %2, 32
  %sext.i = add i64 %5, -8589934592
  %6 = ashr exact i64 %sext.i, 28
  %7 = getelementptr inbounds i8, ptr %1, i64 %6
  %8 = load ptr, ptr %7, align 8, !tbaa !66
  %.not.i = icmp eq ptr %8, null
  br i1 %.not.i, label %set_noreply_maybe.exit, label %9

9:                                                ; preds = %3
  %10 = tail call i32 @strcmp(ptr noundef nonnull dereferenceable(1) %8, ptr noundef nonnull dereferenceable(8) @.str.85) #14
  %11 = icmp eq i32 %10, 0
  br i1 %11, label %12, label %set_noreply_maybe.exit

12:                                               ; preds = %9
  %13 = getelementptr inbounds nuw i8, ptr %0, i64 308
  store i8 1, ptr %13, align 4, !tbaa !39
  br label %set_noreply_maybe.exit

set_noreply_maybe.exit:                           ; preds = %3, %9, %12
  %14 = getelementptr inbounds nuw i8, ptr %1, i64 16
  %15 = load ptr, ptr %14, align 8, !tbaa !66
  %16 = call zeroext i1 @safe_strtoul(ptr noundef %15, ptr noundef nonnull %4) #13
  br i1 %16, label %17, label %20

17:                                               ; preds = %set_noreply_maybe.exit
  %18 = load i32, ptr %4, align 4, !tbaa !27
  %19 = call i32 @llvm.umin.i32(i32 %18, i32 2)
  store i32 %19, ptr getelementptr inbounds nuw (i8, ptr @settings, i64 32), align 8, !tbaa !77
  br label %20

20:                                               ; preds = %set_noreply_maybe.exit, %17
  %.str.98.sink = phi ptr [ @.str.98, %17 ], [ @.str.51, %set_noreply_maybe.exit ]
  call void @out_string(ptr noundef nonnull %0, ptr noundef nonnull %.str.98.sink) #13
  call void @llvm.lifetime.end.p0(i64 4, ptr nonnull %4) #13
  ret void
}